; Function Attrs: nounwind uwtable
define ptr @l_Lean_PersistentHashMap_insert___at_Lean_Meta_Grind_EMatchTheorems_insert___spec__19(ptr noundef %0, ptr noundef %1, ptr noundef %2) local_unnamed_addr #1 {
  %4 = getelementptr inbounds nuw i8, ptr %1, i64 8
  %5 = load ptr, ptr %4, align 8, !tbaa !9
  %6 = ptrtoint ptr %5 to i64
  %7 = and i64 %6, 1
  %.not.i9 = icmp eq i64 %7, 0
  br i1 %.not.i9, label %8, label %l_Lean_Meta_Grind_Origin_key.exit

8:                                                ; preds = %3
  %.val.i.i = load i32, ptr %5, align 4, !tbaa !4
  %9 = icmp sgt i32 %.val.i.i, 0
  br i1 %9, label %10, label %12, !prof !11

10:                                               ; preds = %8
  %11 = add nuw i32 %.val.i.i, 1
  store i32 %11, ptr %5, align 4, !tbaa !4
  br label %15

12:                                               ; preds = %8
  %.not.i.i = icmp eq i32 %.val.i.i, 0
  br i1 %.not.i.i, label %15, label %13

13:                                               ; preds = %12
  tail call void @lean_inc_ref_cold(ptr noundef nonnull %5) #9
  br label %15

l_Lean_Meta_Grind_Origin_key.exit:                ; preds = %3
  %14 = tail call i64 @l_Lean_Name_hash___override(ptr noundef %5) #9
  br label %lean_dec.exit

15:                                               ; preds = %10, %12, %13
  %16 = tail call i64 @l_Lean_Name_hash___override(ptr noundef nonnull %5) #9
  %17 = load i32, ptr %5, align 4, !tbaa !4
  %18 = icmp sgt i32 %17, 1
  br i1 %18, label %19, label %21, !prof !11

19:                                               ; preds = %15
  %20 = add nsw i32 %17, -1
  store i32 %20, ptr %5, align 4, !tbaa !4
  br label %lean_dec.exit

21:                                               ; preds = %15
  %.not.i = icmp eq i32 %17, 0
  br i1 %.not.i, label %lean_dec.exit, label %22

22:                                               ; preds = %21
  tail call void @lean_dec_ref_cold(ptr noundef nonnull %5) #9
  br label %lean_dec.exit

lean_dec.exit:                                    ; preds = %22, %21, %19, %l_Lean_Meta_Grind_Origin_key.exit
  %23 = phi i64 [ %14, %l_Lean_Meta_Grind_Origin_key.exit ], [ %16, %19 ], [ %16, %21 ], [ %16, %22 ]
  %24 = tail call ptr @l_Lean_PersistentHashMap_insertAux___at_Lean_Meta_Grind_EMatchTheorems_insert___spec__20(ptr noundef %0, i64 noundef %23, i64 noundef 1, ptr noundef nonnull %1, ptr noundef %2)
  ret ptr %24
}